; Function Attrs: mustprogress nofree norecurse nosync nounwind willreturn memory(read, inaccessiblemem: none) uwtable
define noundef i32 @_ZN6icu_7712PatternProps14skipWhiteSpaceERKNS_13UnicodeStringEi(ptr noundef nonnull readonly align 8 captures(none) dereferenceable(64) %0, i32 noundef %1) local_unnamed_addr #2 align 2 {
  %3 = getelementptr inbounds nuw i8, ptr %0, i64 8
  %4 = load i16, ptr %3, align 8, !tbaa !3
  %5 = icmp slt i16 %4, 0
  %6 = ashr i16 %4, 5
  %7 = sext i16 %6 to i32
  %8 = getelementptr inbounds nuw i8, ptr %0, i64 12
  %9 = load i32, ptr %8, align 4
  %10 = select i1 %5, i32 %9, i32 %7
  %11 = icmp slt i32 %1, %10
  %12 = icmp ult i32 %1, %10
  %or.cond11 = and i1 %11, %12
  br i1 %or.cond11, label %_ZNK6icu_7713UnicodeString6charAtEi.exit.lr.ph, label %.critedge

_ZNK6icu_7713UnicodeString6charAtEi.exit.lr.ph:   ; preds = %2
  %13 = and i16 %4, 2
  %.not.i.i.i = icmp eq i16 %13, 0
  %14 = getelementptr inbounds nuw i8, ptr %0, i64 10
  %15 = getelementptr inbounds nuw i8, ptr %0, i64 24
  %16 = load ptr, ptr %15, align 8
  %17 = select i1 %.not.i.i.i, ptr %16, ptr %14
  %18 = sext i32 %1 to i64
  %19 = sext i32 %10 to i64
  br label %_ZNK6icu_7713UnicodeString6charAtEi.exit

_ZNK6icu_7713UnicodeString6charAtEi.exit:         ; preds = %_ZNK6icu_7713UnicodeString6charAtEi.exit.lr.ph, %33
  %indvars.iv = phi i64 [ %18, %_ZNK6icu_7713UnicodeString6charAtEi.exit.lr.ph ], [ %indvars.iv.next, %33 ]
  %20 = getelementptr inbounds i16, ptr %17, i64 %indvars.iv
  %21 = load i16, ptr %20, align 2, !tbaa !8
  %22 = icmp ult i16 %21, 256
  br i1 %22, label %23, label %29

23:                                               ; preds = %_ZNK6icu_7713UnicodeString6charAtEi.exit
  %24 = zext nneg i16 %21 to i64
  %25 = getelementptr inbounds nuw [256 x i8], ptr @_ZN6icu_77L6latin1E, i64 0, i64 %24
  %26 = load i8, ptr %25, align 1, !tbaa !3
  %27 = and i8 %26, 4
  %28 = icmp eq i8 %27, 0
  br i1 %28, label %.critedge.loopexit.split.loop.exit, label %33

29:                                               ; preds = %_ZNK6icu_7713UnicodeString6charAtEi.exit
  %30 = add i16 %21, -8206
  %or.cond.i = icmp ult i16 %30, 28
  br i1 %or.cond.i, label %_ZN6icu_7712PatternProps12isWhiteSpaceEi.exit, label %.critedge.loopexit.split.loop.exit17

_ZN6icu_7712PatternProps12isWhiteSpaceEi.exit:    ; preds = %29
  %31 = add nsw i16 %21, -8208
  %32 = icmp ult i16 %31, 24
  br i1 %32, label %.critedge.loopexit.split.loop.exit21, label %33

33:                                               ; preds = %23, %_ZN6icu_7712PatternProps12isWhiteSpaceEi.exit
  %indvars.iv.next = add nuw nsw i64 %indvars.iv, 1
  %34 = icmp slt i64 %indvars.iv.next, %19
  %35 = trunc nsw i64 %indvars.iv.next to i32
  %36 = icmp ugt i32 %10, %35
  %or.cond = and i1 %34, %36
  br i1 %or.cond, label %_ZNK6icu_7713UnicodeString6charAtEi.exit, label %.critedge, !llvm.loop !12

.critedge.loopexit.split.loop.exit:               ; preds = %23
  %37 = trunc nsw i64 %indvars.iv to i32
  br label %.critedge

.critedge.loopexit.split.loop.exit17:             ; preds = %29
  %38 = trunc nsw i64 %indvars.iv to i32
  br label %.critedge

.critedge.loopexit.split.loop.exit21:             ; preds = %_ZN6icu_7712PatternProps12isWhiteSpaceEi.exit
  %39 = trunc nsw i64 %indvars.iv to i32
  br label %.critedge

.critedge:                                        ; preds = %33, %.critedge.loopexit.split.loop.exit, %.critedge.loopexit.split.loop.exit17, %.critedge.loopexit.split.loop.exit21, %2
  %.0.lcssa = phi i32 [ %1, %2 ], [ %37, %.critedge.loopexit.split.loop.exit ], [ %38, %.critedge.loopexit.split.loop.exit17 ], [ %39, %.critedge.loopexit.split.loop.exit21 ], [ %10, %33 ]
  ret i32 %.0.lcssa
}